; Function Attrs: mustprogress nofree norecurse nosync nounwind willreturn memory(none) uwtable
define dso_local noundef float @_ZN17b3TypedConstraint14getMotorFactorEfffff(ptr nocapture noundef nonnull readnone align 16 dereferenceable(64) %this, float noundef %pos, float noundef %lowLim, float noundef %uppLim, float noundef %vel, float noundef %timeFact) local_unnamed_addr #1 align 2 {
entry:
  %cmp = fcmp ogt float %lowLim, %uppLim
  br i1 %cmp, label %return, label %if.else

if.else:                                          ; preds = %entry
  %cmp2 = fcmp oeq float %lowLim, %uppLim
  br i1 %cmp2, label %return, label %if.end4

if.end4:                                          ; preds = %if.else
  %div = fdiv float %vel, %timeFact
  %cmp5 = fcmp olt float %div, 0.000000e+00
  br i1 %cmp5, label %if.then6, label %if.else18

if.then6:                                         ; preds = %if.end4
  %cmp7 = fcmp oge float %pos, %lowLim
  %sub = fsub float %lowLim, %div
  %cmp8 = fcmp ogt float %sub, %pos
  %or.cond = and i1 %cmp7, %cmp8
  br i1 %or.cond, label %if.then9, label %if.else12

if.then9:                                         ; preds = %if.then6
  %sub10 = fsub float %lowLim, %pos
  %div11 = fdiv float %sub10, %div
  br label %return

if.else12:                                        ; preds = %if.then6
  %cmp13 = fcmp olt float %pos, %lowLim
  %. = select i1 %cmp13, float 0.000000e+00, float 1.000000e+00
  br label %return

if.else18:                                        ; preds = %if.end4
  %cmp19 = fcmp ogt float %div, 0.000000e+00
  br i1 %cmp19, label %if.then20, label %return

if.then20:                                        ; preds = %if.else18
  %cmp21 = fcmp ole float %pos, %uppLim
  %sub23 = fsub float %uppLim, %div
  %cmp24 = fcmp olt float %sub23, %pos
  %or.cond23 = and i1 %cmp21, %cmp24
  br i1 %or.cond23, label %if.then25, label %if.else28

if.then25:                                        ; preds = %if.then20
  %sub26 = fsub float %uppLim, %pos
  %div27 = fdiv float %sub26, %div
  br label %return

if.else28:                                        ; preds = %if.then20
  %cmp29 = fcmp ogt float %pos, %uppLim
  %.24 = select i1 %cmp29, float 0.000000e+00, float 1.000000e+00
  br label %return

return:                                           ; preds = %if.then9, %if.then25, %if.else12, %if.else28, %if.else18, %if.else, %entry
  %retval.0 = phi float [ 1.000000e+00, %entry ], [ 0.000000e+00, %if.else ], [ %div11, %if.then9 ], [ %div27, %if.then25 ], [ %., %if.else12 ], [ %.24, %if.else28 ], [ 0.000000e+00, %if.else18 ]
  ret float %retval.0
}